; Function Attrs: nounwind uwtable
define ptr @ASN1_generate_nconf(ptr noundef %0, ptr noundef %1) local_unnamed_addr #0 {
  %3 = alloca i32, align 4
  %4 = alloca i32, align 4
  %5 = alloca %struct.v3_ext_ctx, align 8
  call void @llvm.lifetime.start.p0(i64 64, ptr nonnull %5) #7
  %.not = icmp eq ptr %1, null
  br i1 %.not, label %6, label %10

6:                                                ; preds = %2
  call void @llvm.lifetime.start.p0(i64 4, ptr nonnull %4) #7
  store i32 0, ptr %4, align 4, !tbaa !3
  %7 = call fastcc ptr @generate_v3(ptr noundef %0, ptr noundef null, i32 noundef 0, ptr noundef %4)
  %8 = load i32, ptr %4, align 4, !tbaa !3
  %.not.i = icmp eq i32 %8, 0
  br i1 %.not.i, label %ASN1_generate_v3.exit, label %9

9:                                                ; preds = %6
  tail call void @ERR_new() #7
  tail call void @ERR_set_debug(ptr noundef nonnull @.str, i32 noundef 95, ptr noundef nonnull @__func__.ASN1_generate_v3) #7
  tail call void (i32, i32, ptr, ...) @ERR_set_error(i32 noundef 13, i32 noundef %8, ptr noundef null) #7
  br label %ASN1_generate_v3.exit

ASN1_generate_v3.exit:                            ; preds = %6, %9
  call void @llvm.lifetime.end.p0(i64 4, ptr nonnull %4) #7
  br label %14

10:                                               ; preds = %2
  call void @X509V3_set_nconf(ptr noundef nonnull %5, ptr noundef nonnull %1) #7
  call void @llvm.lifetime.start.p0(i64 4, ptr nonnull %3) #7
  store i32 0, ptr %3, align 4, !tbaa !3
  %11 = call fastcc ptr @generate_v3(ptr noundef %0, ptr noundef nonnull %5, i32 noundef 0, ptr noundef %3)
  %12 = load i32, ptr %3, align 4, !tbaa !3
  %.not.i6 = icmp eq i32 %12, 0
  br i1 %.not.i6, label %ASN1_generate_v3.exit7, label %13

13:                                               ; preds = %10
  call void @ERR_new() #7
  call void @ERR_set_debug(ptr noundef nonnull @.str, i32 noundef 95, ptr noundef nonnull @__func__.ASN1_generate_v3) #7
  call void (i32, i32, ptr, ...) @ERR_set_error(i32 noundef 13, i32 noundef %12, ptr noundef null) #7
  br label %ASN1_generate_v3.exit7

ASN1_generate_v3.exit7:                           ; preds = %10, %13
  call void @llvm.lifetime.end.p0(i64 4, ptr nonnull %3) #7
  br label %14

14:                                               ; preds = %ASN1_generate_v3.exit7, %ASN1_generate_v3.exit
  %.0 = phi ptr [ %11, %ASN1_generate_v3.exit7 ], [ %7, %ASN1_generate_v3.exit ]
  call void @llvm.lifetime.end.p0(i64 64, ptr nonnull %5) #7
  ret ptr %.0
}